target datalayout = "e-m:e-p270:32:32-p271:32:32-p272:64:64-i64:64-i128:128-f80:128-n8:16:32:64-S128"
target triple = "x86_64-pc-linux-gnu"

@AllocatePrefetchStyle = external global i32, align 4
@.str.4 = private unnamed_addr constant [54 x i8] c"AllocatePrefetchStepSize (%d) must be multiple of %d\0A\00", align 1

; Function Attrs: mustprogress nounwind uwtable
define hidden noundef i32 @_Z38AllocatePrefetchStepSizeConstraintFuncib(i32 noundef %0, i1 noundef zeroext %1) #1 {
  %3 = alloca i32, align 4
  %4 = alloca i32, align 4
  %5 = alloca i8, align 1
  store i32 %0, ptr %4, align 4
  %6 = zext i1 %1 to i8
  store i8 %6, ptr %5, align 1
  %7 = load i32, ptr @AllocatePrefetchStyle, align 4
  %8 = icmp eq i32 %7, 3
  br i1 %8, label %9, label %18

9:                                                ; preds = %2
  %10 = load i32, ptr %4, align 4
  %11 = srem i32 %10, 8
  %12 = icmp ne i32 %11, 0
  br i1 %12, label %13, label %17

13:                                               ; preds = %9
  %14 = load i8, ptr %5, align 1
  %15 = trunc i8 %14 to i1
  %16 = load i32, ptr %4, align 4
  call void (i1, ptr, ...) @_ZN7JVMFlag10printErrorEbPKcz(i1 noundef zeroext %15, ptr noundef @.str.4, i32 noundef %16, i32 noundef 8)
  store i32 6, ptr %3, align 4
  br label %19

17:                                               ; preds = %9
  br label %18

18:                                               ; preds = %17, %2
  store i32 0, ptr %3, align 4
  br label %19

19:                                               ; preds = %18, %13
  %20 = load i32, ptr %3, align 4
  ret i32 %20
}