; Function Attrs: mustprogress nounwind uwtable
define hidden noundef range(i32 0, 7) i32 @_Z38AllocatePrefetchStepSizeConstraintFuncib(i32 noundef %0, i1 noundef zeroext %1) local_unnamed_addr #0 {
  %3 = load i32, ptr @AllocatePrefetchStyle, align 4
  %4 = icmp ne i32 %3, 3
  %5 = and i32 %0, 7
  %.not = icmp eq i32 %5, 0
  %or.cond = or i1 %.not, %4
  br i1 %or.cond, label %7, label %6

6:                                                ; preds = %2
  tail call void (i1, ptr, ...) @_ZN7JVMFlag10printErrorEbPKcz(i1 noundef zeroext %1, ptr noundef nonnull @.str.4, i32 noundef %0, i32 noundef 8) #6
  br label %7

7:                                                ; preds = %2, %6
  %.0 = phi i32 [ 6, %6 ], [ 0, %2 ]
  ret i32 %.0
}